target datalayout = "e-m:e-p270:32:32-p271:32:32-p272:64:64-i64:64-i128:128-f80:128-n8:16:32:64-S128"
target triple = "x86_64-pc-linux-gnu"

%struct.FunctionCallInfoBaseData = type { ptr, ptr, ptr, i32, i8, i16, [0 x %struct.NullableDatum] }
%struct.NullableDatum = type { i64, i8 }

; Function Attrs: inlinehint nounwind uwtable
define internal ptr @DatumGetPointer(i64 noundef %0) #2 {
  %2 = alloca i64, align 8
  store i64 %0, ptr %2, align 8
  %3 = load i64, ptr %2, align 8
  %4 = inttoptr i64 %3 to ptr
  ret ptr %4
}

; Function Attrs: inlinehint nounwind uwtable
define internal i64 @Int32GetDatum(i32 noundef %0) #2 {
  %2 = alloca i32, align 4
  store i32 %0, ptr %2, align 4
  %3 = load i32, ptr %2, align 4
  %4 = sext i32 %3 to i64
  ret i64 %4
}

; Function Attrs: nounwind uwtable
define internal i32 @euc_kr2mic(ptr noundef %0, ptr noundef %1, i32 noundef %2, i1 noundef zeroext %3) #0 {
  %5 = alloca ptr, align 8
  %6 = alloca ptr, align 8
  %7 = alloca i32, align 4
  %8 = alloca i8, align 1
  %9 = alloca ptr, align 8
  %10 = alloca i32, align 4
  %11 = alloca i32, align 4
  store ptr %0, ptr %5, align 8
  store ptr %1, ptr %6, align 8
  store i32 %2, ptr %7, align 4
  %12 = zext i1 %3 to i8
  store i8 %12, ptr %8, align 1
  call void @llvm.lifetime.start.p0(i64 8, ptr %9) #5
  %13 = load ptr, ptr %5, align 8
  store ptr %13, ptr %9, align 8
  call void @llvm.lifetime.start.p0(i64 4, ptr %10) #5
  call void @llvm.lifetime.start.p0(i64 4, ptr %11) #5
  br label %14

14:                                               ; preds = %74, %4
  %15 = load i32, ptr %7, align 4
  %16 = icmp sgt i32 %15, 0
  br i1 %16, label %17, label %75

17:                                               ; preds = %14
  %18 = load ptr, ptr %5, align 8
  %19 = load i8, ptr %18, align 1
  %20 = zext i8 %19 to i32
  store i32 %20, ptr %10, align 4
  %21 = load i32, ptr %10, align 4
  %22 = trunc i32 %21 to i8
  %23 = zext i8 %22 to i32
  %24 = and i32 %23, 128
  %25 = icmp ne i32 %24, 0
  br i1 %25, label %26, label %55

26:                                               ; preds = %17
  %27 = load ptr, ptr %5, align 8
  %28 = load i32, ptr %7, align 4
  %29 = call i32 @pg_encoding_verifymbchar(i32 noundef 3, ptr noundef %27, i32 noundef %28)
  store i32 %29, ptr %11, align 4
  %30 = load i32, ptr %11, align 4
  %31 = icmp ne i32 %30, 2
  br i1 %31, label %32, label %39

32:                                               ; preds = %26
  %33 = load i8, ptr %8, align 1, !range !3, !noundef !4
  %34 = trunc i8 %33 to i1
  br i1 %34, label %35, label %36

35:                                               ; preds = %32
  br label %75

36:                                               ; preds = %32
  %37 = load ptr, ptr %5, align 8
  %38 = load i32, ptr %7, align 4
  call void @report_invalid_encoding(i32 noundef 3, ptr noundef %37, i32 noundef %38) #6
  unreachable

39:                                               ; preds = %26
  %40 = load ptr, ptr %6, align 8
  %41 = getelementptr inbounds nuw i8, ptr %40, i32 1
  store ptr %41, ptr %6, align 8
  store i8 -109, ptr %40, align 1
  %42 = load i32, ptr %10, align 4
  %43 = trunc i32 %42 to i8
  %44 = load ptr, ptr %6, align 8
  %45 = getelementptr inbounds nuw i8, ptr %44, i32 1
  store ptr %45, ptr %6, align 8
  store i8 %43, ptr %44, align 1
  %46 = load ptr, ptr %5, align 8
  %47 = getelementptr inbounds i8, ptr %46, i64 1
  %48 = load i8, ptr %47, align 1
  %49 = load ptr, ptr %6, align 8
  %50 = getelementptr inbounds nuw i8, ptr %49, i32 1
  store ptr %50, ptr %6, align 8
  store i8 %48, ptr %49, align 1
  %51 = load ptr, ptr %5, align 8
  %52 = getelementptr inbounds i8, ptr %51, i64 2
  store ptr %52, ptr %5, align 8
  %53 = load i32, ptr %7, align 4
  %54 = sub i32 %53, 2
  store i32 %54, ptr %7, align 4
  br label %74

55:                                               ; preds = %17
  %56 = load i32, ptr %10, align 4
  %57 = icmp eq i32 %56, 0
  br i1 %57, label %58, label %65

58:                                               ; preds = %55
  %59 = load i8, ptr %8, align 1, !range !3, !noundef !4
  %60 = trunc i8 %59 to i1
  br i1 %60, label %61, label %62

61:                                               ; preds = %58
  br label %75

62:                                               ; preds = %58
  %63 = load ptr, ptr %5, align 8
  %64 = load i32, ptr %7, align 4
  call void @report_invalid_encoding(i32 noundef 3, ptr noundef %63, i32 noundef %64) #6
  unreachable

65:                                               ; preds = %55
  %66 = load i32, ptr %10, align 4
  %67 = trunc i32 %66 to i8
  %68 = load ptr, ptr %6, align 8
  %69 = getelementptr inbounds nuw i8, ptr %68, i32 1
  store ptr %69, ptr %6, align 8
  store i8 %67, ptr %68, align 1
  %70 = load ptr, ptr %5, align 8
  %71 = getelementptr inbounds nuw i8, ptr %70, i32 1
  store ptr %71, ptr %5, align 8
  %72 = load i32, ptr %7, align 4
  %73 = add i32 %72, -1
  store i32 %73, ptr %7, align 4
  br label %74

74:                                               ; preds = %65, %39
  br label %14, !llvm.loop !5

75:                                               ; preds = %61, %35, %14
  %76 = load ptr, ptr %6, align 8
  store i8 0, ptr %76, align 1
  %77 = load ptr, ptr %5, align 8
  %78 = load ptr, ptr %9, align 8
  %79 = ptrtoint ptr %77 to i64
  %80 = ptrtoint ptr %78 to i64
  %81 = sub i64 %79, %80
  %82 = trunc i64 %81 to i32
  call void @llvm.lifetime.end.p0(i64 4, ptr %11) #5
  call void @llvm.lifetime.end.p0(i64 4, ptr %10) #5
  call void @llvm.lifetime.end.p0(i64 8, ptr %9) #5
  ret i32 %82
}

; Function Attrs: inlinehint nounwind uwtable
define internal zeroext i1 @DatumGetBool(i64 noundef %0) #2 {
  %2 = alloca i64, align 8
  store i64 %0, ptr %2, align 8
  %3 = load i64, ptr %2, align 8
  %4 = icmp ne i64 %3, 0
  ret i1 %4
}

; Function Attrs: inlinehint nounwind uwtable
define internal i32 @DatumGetInt32(i64 noundef %0) #2 {
  %2 = alloca i64, align 8
  store i64 %0, ptr %2, align 8
  %3 = load i64, ptr %2, align 8
  %4 = trunc i64 %3 to i32
  ret i32 %4
}

; Function Attrs: inlinehint nounwind uwtable
define internal ptr @DatumGetCString(i64 noundef %0) #2 {
  %2 = alloca i64, align 8
  store i64 %0, ptr %2, align 8
  %3 = load i64, ptr %2, align 8
  %4 = call ptr @DatumGetPointer(i64 noundef %3)
  ret ptr %4
}

; Function Attrs: nounwind uwtable
define i64 @euc_kr_to_mic(ptr noundef %0) #0 {
  %2 = alloca ptr, align 8
  %3 = alloca ptr, align 8
  %4 = alloca ptr, align 8
  %5 = alloca i32, align 4
  %6 = alloca i8, align 1
  %7 = alloca i32, align 4
  store ptr %0, ptr %2, align 8
  call void @llvm.lifetime.start.p0(i64 8, ptr %3) #5
  %8 = load ptr, ptr %2, align 8
  %9 = getelementptr inbounds nuw %struct.FunctionCallInfoBaseData, ptr %8, i32 0, i32 6
  %10 = getelementptr inbounds [0 x %struct.NullableDatum], ptr %9, i64 0, i64 2
  %11 = getelementptr inbounds nuw %struct.NullableDatum, ptr %10, i32 0, i32 0
  %12 = load i64, ptr %11, align 8
  %13 = call ptr @DatumGetCString(i64 noundef %12)
  store ptr %13, ptr %3, align 8
  call void @llvm.lifetime.start.p0(i64 8, ptr %4) #5
  %14 = load ptr, ptr %2, align 8
  %15 = getelementptr inbounds nuw %struct.FunctionCallInfoBaseData, ptr %14, i32 0, i32 6
  %16 = getelementptr inbounds [0 x %struct.NullableDatum], ptr %15, i64 0, i64 3
  %17 = getelementptr inbounds nuw %struct.NullableDatum, ptr %16, i32 0, i32 0
  %18 = load i64, ptr %17, align 8
  %19 = call ptr @DatumGetCString(i64 noundef %18)
  store ptr %19, ptr %4, align 8
  call void @llvm.lifetime.start.p0(i64 4, ptr %5) #5
  %20 = load ptr, ptr %2, align 8
  %21 = getelementptr inbounds nuw %struct.FunctionCallInfoBaseData, ptr %20, i32 0, i32 6
  %22 = getelementptr inbounds [0 x %struct.NullableDatum], ptr %21, i64 0, i64 4
  %23 = getelementptr inbounds nuw %struct.NullableDatum, ptr %22, i32 0, i32 0
  %24 = load i64, ptr %23, align 8
  %25 = call i32 @DatumGetInt32(i64 noundef %24)
  store i32 %25, ptr %5, align 4
  call void @llvm.lifetime.start.p0(i64 1, ptr %6) #5
  %26 = load ptr, ptr %2, align 8
  %27 = getelementptr inbounds nuw %struct.FunctionCallInfoBaseData, ptr %26, i32 0, i32 6
  %28 = getelementptr inbounds [0 x %struct.NullableDatum], ptr %27, i64 0, i64 5
  %29 = getelementptr inbounds nuw %struct.NullableDatum, ptr %28, i32 0, i32 0
  %30 = load i64, ptr %29, align 8
  %31 = call zeroext i1 @DatumGetBool(i64 noundef %30)
  %32 = zext i1 %31 to i8
  store i8 %32, ptr %6, align 1
  call void @llvm.lifetime.start.p0(i64 4, ptr %7) #5
  %33 = load ptr, ptr %2, align 8
  %34 = getelementptr inbounds nuw %struct.FunctionCallInfoBaseData, ptr %33, i32 0, i32 6
  %35 = getelementptr inbounds [0 x %struct.NullableDatum], ptr %34, i64 0, i64 0
  %36 = getelementptr inbounds nuw %struct.NullableDatum, ptr %35, i32 0, i32 0
  %37 = load i64, ptr %36, align 8
  %38 = call i32 @DatumGetInt32(i64 noundef %37)
  %39 = load ptr, ptr %2, align 8
  %40 = getelementptr inbounds nuw %struct.FunctionCallInfoBaseData, ptr %39, i32 0, i32 6
  %41 = getelementptr inbounds [0 x %struct.NullableDatum], ptr %40, i64 0, i64 1
  %42 = getelementptr inbounds nuw %struct.NullableDatum, ptr %41, i32 0, i32 0
  %43 = load i64, ptr %42, align 8
  %44 = call i32 @DatumGetInt32(i64 noundef %43)
  %45 = load ptr, ptr %2, align 8
  %46 = getelementptr inbounds nuw %struct.FunctionCallInfoBaseData, ptr %45, i32 0, i32 6
  %47 = getelementptr inbounds [0 x %struct.NullableDatum], ptr %46, i64 0, i64 4
  %48 = getelementptr inbounds nuw %struct.NullableDatum, ptr %47, i32 0, i32 0
  %49 = load i64, ptr %48, align 8
  %50 = call i32 @DatumGetInt32(i64 noundef %49)
  call void @check_encoding_conversion_args(i32 noundef %38, i32 noundef %44, i32 noundef %50, i32 noundef 3, i32 noundef 7)
  %51 = load ptr, ptr %3, align 8
  %52 = load ptr, ptr %4, align 8
  %53 = load i32, ptr %5, align 4
  %54 = load i8, ptr %6, align 1, !range !3, !noundef !4
  %55 = trunc i8 %54 to i1
  %56 = call i32 @euc_kr2mic(ptr noundef %51, ptr noundef %52, i32 noundef %53, i1 noundef zeroext %55)
  store i32 %56, ptr %7, align 4
  %57 = load i32, ptr %7, align 4
  %58 = call i64 @Int32GetDatum(i32 noundef %57)
  call void @llvm.lifetime.end.p0(i64 4, ptr %7) #5
  call void @llvm.lifetime.end.p0(i64 1, ptr %6) #5
  call void @llvm.lifetime.end.p0(i64 4, ptr %5) #5
  call void @llvm.lifetime.end.p0(i64 8, ptr %4) #5
  call void @llvm.lifetime.end.p0(i64 8, ptr %3) #5
  ret i64 %58
}