; Function Attrs: nounwind uwtable
define range(i64 -2147483648, 2147483648) i64 @euc_kr_to_mic(ptr noundef readonly captures(none) %0) local_unnamed_addr #1 {
  %2 = getelementptr inbounds nuw i8, ptr %0, i64 32
  %3 = getelementptr inbounds nuw i8, ptr %0, i64 64
  %4 = load i64, ptr %3, align 8
  %5 = inttoptr i64 %4 to ptr
  %6 = getelementptr inbounds nuw i8, ptr %0, i64 80
  %7 = load i64, ptr %6, align 8
  %8 = inttoptr i64 %7 to ptr
  %9 = getelementptr inbounds nuw i8, ptr %0, i64 96
  %10 = load i64, ptr %9, align 8
  %11 = trunc i64 %10 to i32
  %12 = getelementptr inbounds nuw i8, ptr %0, i64 112
  %13 = load i64, ptr %12, align 8
  %.not = icmp eq i64 %13, 0
  %14 = load i64, ptr %2, align 8
  %15 = trunc i64 %14 to i32
  %16 = getelementptr inbounds nuw i8, ptr %0, i64 48
  %17 = load i64, ptr %16, align 8
  %18 = trunc i64 %17 to i32
  tail call void @check_encoding_conversion_args(i32 noundef %15, i32 noundef %18, i32 noundef %11, i32 noundef 3, i32 noundef 7) #4
  %19 = icmp sgt i32 %11, 0
  br i1 %19, label %.lr.ph.i, label %euc_kr2mic.exit

.lr.ph.i:                                         ; preds = %1, %37
  %.042.i = phi ptr [ %38, %37 ], [ %5, %1 ]
  %.02741.i = phi ptr [ %.128.i, %37 ], [ %8, %1 ]
  %.02940.i = phi i32 [ %39, %37 ], [ %11, %1 ]
  %20 = load i8, ptr %.042.i, align 1
  %.not.i = icmp sgt i8 %20, -1
  br i1 %.not.i, label %31, label %21

21:                                               ; preds = %.lr.ph.i
  %22 = tail call i32 @pg_encoding_verifymbchar(i32 noundef 3, ptr noundef nonnull %.042.i, i32 noundef %.02940.i) #4
  %.not31.i = icmp eq i32 %22, 2
  br i1 %.not31.i, label %25, label %23

23:                                               ; preds = %21
  br i1 %.not, label %24, label %euc_kr2mic.exit

24:                                               ; preds = %23
  tail call void @report_invalid_encoding(i32 noundef 3, ptr noundef nonnull %.042.i, i32 noundef %.02940.i) #5
  unreachable

25:                                               ; preds = %21
  %26 = getelementptr inbounds nuw i8, ptr %.02741.i, i64 1
  store i8 -109, ptr %.02741.i, align 1
  %27 = getelementptr inbounds nuw i8, ptr %.02741.i, i64 2
  store i8 %20, ptr %26, align 1
  %28 = getelementptr inbounds nuw i8, ptr %.042.i, i64 1
  %29 = load i8, ptr %28, align 1
  %30 = getelementptr inbounds nuw i8, ptr %.02741.i, i64 3
  store i8 %29, ptr %27, align 1
  br label %37

31:                                               ; preds = %.lr.ph.i
  %32 = icmp eq i8 %20, 0
  br i1 %32, label %33, label %35

33:                                               ; preds = %31
  br i1 %.not, label %34, label %euc_kr2mic.exit

34:                                               ; preds = %33
  tail call void @report_invalid_encoding(i32 noundef 3, ptr noundef nonnull %.042.i, i32 noundef %.02940.i) #5
  unreachable

35:                                               ; preds = %31
  %36 = getelementptr inbounds nuw i8, ptr %.02741.i, i64 1
  store i8 %20, ptr %.02741.i, align 1
  br label %37

37:                                               ; preds = %35, %25
  %.sink56.i = phi i64 [ 1, %35 ], [ 2, %25 ]
  %.sink.i = phi i32 [ -1, %35 ], [ -2, %25 ]
  %.128.i = phi ptr [ %36, %35 ], [ %30, %25 ]
  %38 = getelementptr inbounds nuw i8, ptr %.042.i, i64 %.sink56.i
  %39 = add nsw i32 %.sink.i, %.02940.i
  %40 = icmp sgt i32 %39, 0
  br i1 %40, label %.lr.ph.i, label %euc_kr2mic.exit, !llvm.loop !3

euc_kr2mic.exit:                                  ; preds = %37, %1, %23, %33
  %.02737.i = phi ptr [ %.02741.i, %33 ], [ %.02741.i, %23 ], [ %8, %1 ], [ %.128.i, %37 ]
  %.034.i = phi ptr [ %.042.i, %33 ], [ %.042.i, %23 ], [ %5, %1 ], [ %38, %37 ]
  store i8 0, ptr %.02737.i, align 1
  %41 = ptrtoint ptr %.034.i to i64
  %42 = sub i64 %41, %4
  %sext = shl i64 %42, 32
  %43 = ashr exact i64 %sext, 32
  ret i64 %43
}